; Function Attrs: mustprogress nounwind uwtable
define noundef zeroext i1 @_ZN32pxrInternal_v0_24__pxrReserved__7TfIsDirERKNSt7__cxx1112basic_stringIcSt11char_traitsIcESaIcEEEb(ptr noundef nonnull align 8 dereferenceable(32) %0, i1 noundef zeroext %1) local_unnamed_addr #0 {
  %3 = alloca %struct.stat, align 8
  %4 = tail call noundef zeroext i1 @_ZNKSt7__cxx1112basic_stringIcSt11char_traitsIcESaIcEE5emptyEv(ptr noundef nonnull align 8 dereferenceable(32) %0) #21
  br i1 %4, label %_ZN32pxrInternal_v0_24__pxrReserved__L7Tf_StatERKNSt7__cxx1112basic_stringIcSt11char_traitsIcESaIcEEEbP4stat.exit, label %5

5:                                                ; preds = %2
  %6 = tail call noundef ptr @_ZNKSt7__cxx1112basic_stringIcSt11char_traitsIcESaIcEE5c_strEv(ptr noundef nonnull align 8 dereferenceable(32) %0) #21
  br i1 %1, label %7, label %9

7:                                                ; preds = %5
  %8 = call i32 @stat(ptr noundef %6, ptr noundef nonnull %3) #21
  br label %11

9:                                                ; preds = %5
  %10 = call i32 @lstat(ptr noundef %6, ptr noundef nonnull %3) #21
  br label %11

11:                                               ; preds = %9, %7
  %12 = phi i32 [ %8, %7 ], [ %10, %9 ]
  %13 = icmp eq i32 %12, 0
  %.phi.trans.insert = getelementptr inbounds nuw i8, ptr %3, i64 24
  %.pre = load i32, ptr %.phi.trans.insert, align 8
  %14 = and i32 %.pre, 61440
  %15 = icmp eq i32 %14, 16384
  %16 = select i1 %13, i1 %15, i1 false
  br label %_ZN32pxrInternal_v0_24__pxrReserved__L7Tf_StatERKNSt7__cxx1112basic_stringIcSt11char_traitsIcESaIcEEEbP4stat.exit

_ZN32pxrInternal_v0_24__pxrReserved__L7Tf_StatERKNSt7__cxx1112basic_stringIcSt11char_traitsIcESaIcEEEbP4stat.exit: ; preds = %2, %11
  %.0.i = phi i1 [ %16, %11 ], [ false, %2 ]
  ret i1 %.0.i
}